; ModuleID = '9/1271.c'
source_filename = "9/1271.c"
target datalayout = "e-m:e-p270:32:32-p271:32:32-p272:64:64-i64:64-f80:128-n8:16:32:64-S128"
target triple = "x86_64-pc-linux-gnu"

%struct.patient = type { [10 x i8], i32 }

@.str = private unnamed_addr constant [3 x i8] c"%d\00", align 1
@.str.1 = private unnamed_addr constant [5 x i8] c"%s%d\00", align 1
@pat = common dso_local global [100 x %struct.patient] zeroinitializer, align 16
@.str.2 = private unnamed_addr constant [4 x i8] c"%s\0A\00", align 1

; Function Attrs: noinline nounwind uwtable
define dso_local i32 @main() #0 {
  %1 = alloca i32, align 4
  %2 = alloca i32, align 4
  %3 = alloca i32, align 4
  %4 = alloca i32, align 4
  %5 = alloca i32, align 4
  %6 = alloca i32, align 4
  %7 = alloca [100 x %struct.patient*], align 16
  %8 = alloca %struct.patient*, align 8
  store i32 0, i32* %1, align 4
  store i32 0, i32* %3, align 4
  %9 = call i32 (i8*, ...) @__isoc99_scanf(i8* getelementptr inbounds ([3 x i8], [3 x i8]* @.str, i64 0, i64 0), i32* %5)
  store i32 0, i32* %2, align 4
  br label %10

10:                                               ; preds = %25, %0
  %11 = load i32, i32* %2, align 4
  %12 = load i32, i32* %5, align 4
  %13 = icmp slt i32 %11, %12
  br i1 %13, label %14, label %28

14:                                               ; preds = %10
  %15 = load i32, i32* %2, align 4
  %16 = sext i32 %15 to i64
  %17 = getelementptr inbounds [100 x %struct.patient], [100 x %struct.patient]* @pat, i64 0, i64 %16
  %18 = getelementptr inbounds %struct.patient, %struct.patient* %17, i32 0, i32 0
  %19 = getelementptr inbounds [10 x i8], [10 x i8]* %18, i64 0, i64 0
  %20 = load i32, i32* %2, align 4
  %21 = sext i32 %20 to i64
  %22 = getelementptr inbounds [100 x %struct.patient], [100 x %struct.patient]* @pat, i64 0, i64 %21
  %23 = getelementptr inbounds %struct.patient, %struct.patient* %22, i32 0, i32 1
  %24 = call i32 (i8*, ...) @__isoc99_scanf(i8* getelementptr inbounds ([5 x i8], [5 x i8]* @.str.1, i64 0, i64 0), i8* %19, i32* %23)
  br label %25

25:                                               ; preds = %14
  %26 = load i32, i32* %2, align 4
  %27 = add nsw i32 %26, 1
  store i32 %27, i32* %2, align 4
  br label %10

28:                                               ; preds = %10
  store i32 0, i32* %2, align 4
  br label %29

29:                                               ; preds = %50, %28
  %30 = load i32, i32* %2, align 4
  %31 = load i32, i32* %5, align 4
  %32 = icmp slt i32 %30, %31
  br i1 %32, label %33, label %53

33:                                               ; preds = %29
  %34 = load i32, i32* %2, align 4
  %35 = sext i32 %34 to i64
  %36 = getelementptr inbounds [100 x %struct.patient], [100 x %struct.patient]* @pat, i64 0, i64 %35
  %37 = getelementptr inbounds %struct.patient, %struct.patient* %36, i32 0, i32 1
  %38 = load i32, i32* %37, align 4
  %39 = icmp sge i32 %38, 60
  br i1 %39, label %40, label %49

40:                                               ; preds = %33
  %41 = load i32, i32* %2, align 4
  %42 = sext i32 %41 to i64
  %43 = getelementptr inbounds %struct.patient, %struct.patient* getelementptr inbounds ([100 x %struct.patient], [100 x %struct.patient]* @pat, i64 0, i64 0), i64 %42
  %44 = load i32, i32* %3, align 4
  %45 = sext i32 %44 to i64
  %46 = getelementptr inbounds [100 x %struct.patient*], [100 x %struct.patient*]* %7, i64 0, i64 %45
  store %struct.patient* %43, %struct.patient** %46, align 8
  %47 = load i32, i32* %3, align 4
  %48 = add nsw i32 %47, 1
  store i32 %48, i32* %3, align 4
  br label %49

49:                                               ; preds = %40, %33
  br label %50

50:                                               ; preds = %49
  %51 = load i32, i32* %2, align 4
  %52 = add nsw i32 %51, 1
  store i32 %52, i32* %2, align 4
  br label %29

53:                                               ; preds = %29
  store i32 0, i32* %2, align 4
  br label %54

54:                                               ; preds = %105, %53
  %55 = load i32, i32* %2, align 4
  %56 = load i32, i32* %3, align 4
  %57 = sub nsw i32 %56, 1
  %58 = icmp slt i32 %55, %57
  br i1 %58, label %59, label %108

59:                                               ; preds = %54
  store i32 0, i32* %4, align 4
  br label %60

60:                                               ; preds = %101, %59
  %61 = load i32, i32* %4, align 4
  %62 = load i32, i32* %3, align 4
  %63 = sub nsw i32 %62, 1
  %64 = load i32, i32* %2, align 4
  %65 = sub nsw i32 %63, %64
  %66 = icmp slt i32 %61, %65
  br i1 %66, label %67, label %104

67:                                               ; preds = %60
  %68 = load i32, i32* %4, align 4
  %69 = sext i32 %68 to i64
  %70 = getelementptr inbounds [100 x %struct.patient*], [100 x %struct.patient*]* %7, i64 0, i64 %69
  %71 = load %struct.patient*, %struct.patient** %70, align 8
  %72 = getelementptr inbounds %struct.patient, %struct.patient* %71, i32 0, i32 1
  %73 = load i32, i32* %72, align 4
  %74 = load i32, i32* %4, align 4
  %75 = add nsw i32 %74, 1
  %76 = sext i32 %75 to i64
  %77 = getelementptr inbounds [100 x %struct.patient*], [100 x %struct.patient*]* %7, i64 0, i64 %76
  %78 = load %struct.patient*, %struct.patient** %77, align 8
  %79 = getelementptr inbounds %struct.patient, %struct.patient* %78, i32 0, i32 1
  %80 = load i32, i32* %79, align 4
  %81 = icmp slt i32 %73, %80
  br i1 %81, label %82, label %100

82:                                               ; preds = %67
  %83 = load i32, i32* %4, align 4
  %84 = sext i32 %83 to i64
  %85 = getelementptr inbounds [100 x %struct.patient*], [100 x %struct.patient*]* %7, i64 0, i64 %84
  %86 = load %struct.patient*, %struct.patient** %85, align 8
  store %struct.patient* %86, %struct.patient** %8, align 8
  %87 = load i32, i32* %4, align 4
  %88 = add nsw i32 %87, 1
  %89 = sext i32 %88 to i64
  %90 = getelementptr inbounds [100 x %struct.patient*], [100 x %struct.patient*]* %7, i64 0, i64 %89
  %91 = load %struct.patient*, %struct.patient** %90, align 8
  %92 = load i32, i32* %4, align 4
  %93 = sext i32 %92 to i64
  %94 = getelementptr inbounds [100 x %struct.patient*], [100 x %struct.patient*]* %7, i64 0, i64 %93
  store %struct.patient* %91, %struct.patient** %94, align 8
  %95 = load %struct.patient*, %struct.patient** %8, align 8
  %96 = load i32, i32* %4, align 4
  %97 = add nsw i32 %96, 1
  %98 = sext i32 %97 to i64
  %99 = getelementptr inbounds [100 x %struct.patient*], [100 x %struct.patient*]* %7, i64 0, i64 %98
  store %struct.patient* %95, %struct.patient** %99, align 8
  br label %100

100:                                              ; preds = %82, %67
  br label %101

101:                                              ; preds = %100
  %102 = load i32, i32* %4, align 4
  %103 = add nsw i32 %102, 1
  store i32 %103, i32* %4, align 4
  br label %60

104:                                              ; preds = %60
  br label %105

105:                                              ; preds = %104
  %106 = load i32, i32* %2, align 4
  %107 = add nsw i32 %106, 1
  store i32 %107, i32* %2, align 4
  br label %54

108:                                              ; preds = %54
  store i32 0, i32* %2, align 4
  br label %109

109:                                              ; preds = %121, %108
  %110 = load i32, i32* %2, align 4
  %111 = load i32, i32* %3, align 4
  %112 = icmp slt i32 %110, %111
  br i1 %112, label %113, label %124

113:                                              ; preds = %109
  %114 = load i32, i32* %2, align 4
  %115 = sext i32 %114 to i64
  %116 = getelementptr inbounds [100 x %struct.patient*], [100 x %struct.patient*]* %7, i64 0, i64 %115
  %117 = load %struct.patient*, %struct.patient** %116, align 8
  %118 = getelementptr inbounds %struct.patient, %struct.patient* %117, i32 0, i32 0
  %119 = getelementptr inbounds [10 x i8], [10 x i8]* %118, i64 0, i64 0
  %120 = call i32 (i8*, ...) @printf(i8* getelementptr inbounds ([4 x i8], [4 x i8]* @.str.2, i64 0, i64 0), i8* %119)
  br label %121

121:                                              ; preds = %113
  %122 = load i32, i32* %2, align 4
  %123 = add nsw i32 %122, 1
  store i32 %123, i32* %2, align 4
  br label %109

124:                                              ; preds = %109
  store i32 0, i32* %2, align 4
  br label %125

125:                                              ; preds = %144, %124
  %126 = load i32, i32* %2, align 4
  %127 = load i32, i32* %5, align 4
  %128 = icmp slt i32 %126, %127
  br i1 %128, label %129, label %147

129:                                              ; preds = %125
  %130 = load i32, i32* %2, align 4
  %131 = sext i32 %130 to i64
  %132 = getelementptr inbounds [100 x %struct.patient], [100 x %struct.patient]* @pat, i64 0, i64 %131
  %133 = getelementptr inbounds %struct.patient, %struct.patient* %132, i32 0, i32 1
  %134 = load i32, i32* %133, align 4
  %135 = icmp slt i32 %134, 60
  br i1 %135, label %136, label %143

136:                                              ; preds = %129
  %137 = load i32, i32* %2, align 4
  %138 = sext i32 %137 to i64
  %139 = getelementptr inbounds [100 x %struct.patient], [100 x %struct.patient]* @pat, i64 0, i64 %138
  %140 = getelementptr inbounds %struct.patient, %struct.patient* %139, i32 0, i32 0
  %141 = getelementptr inbounds [10 x i8], [10 x i8]* %140, i64 0, i64 0
  %142 = call i32 (i8*, ...) @printf(i8* getelementptr inbounds ([4 x i8], [4 x i8]* @.str.2, i64 0, i64 0), i8* %141)
  br label %143

143:                                              ; preds = %136, %129
  br label %144

144:                                              ; preds = %143
  %145 = load i32, i32* %2, align 4
  %146 = add nsw i32 %145, 1
  store i32 %146, i32* %2, align 4
  br label %125

147:                                              ; preds = %125
  ret i32 0
}

declare dso_local i32 @__isoc99_scanf(i8*, ...) #1

declare dso_local i32 @printf(i8*, ...) #1


!llvm.module.flags = !{!0}
!llvm.ident = !{!1}

!0 = !{i32 1, !"wchar_size", i32 4}
!1 = !{!"clang version 10.0.0-4ubuntu1 "}
